(dp1
S'max'
p2
(lp3
S'f%BY6}~Bp}w;(rL7wE2m'
p4
aS'6e56b974c3d022fa68dfffa8c6a5f3eb03228a488e62895b53e1a3de9446737733ca4a431ff4f199576095410f0917d5e62e6e349846c24ff721fb36ebf23b67'
p5
asS'pooh'
p6
(lp7
S'7+wcJ*t6p}_u,hKF|`r!'
p8
aS'4cf41ea3a31493d5509128235585ac1c4ff07a64f6211c95f0b0550b63e471541c562f0ff53cc69e34f33de07c3c6018084a2e21a638cf40107ba6eb8e6eb83e'
p9
asS'vlad'
p10
(lp11
S"Q+nniGs%`&'DU>>hOV2y"
p12
aS'f683219c7868c32f995c1ce757dec16ba78c3d0f3195d2e25d1941401f206f70e775647d6d6ba3503e040970d81c1dc0918b94901c27ade900fc268a1f02ef08'
p13
as.